; Function Attrs: inlinehint mustprogress optsize uwtable
define internal noundef ptr @"_ZZN8nanobind6detail11func_createILb0ELb1EZL32nanobind_init_test_functions_extRNS_7module_EE4$_43NS_5bytesEJS5_EJLm0EEJNS_5scopeENS_4nameEEEEP7_objectOT1_PFT2_DpT3_ESt16integer_sequenceImJXspT4_EEEDpRKT5_ENUlPvPS9_PhNS_9rv_policyEPNS0_12cleanup_listEE_8__invokeESN_SO_SP_SQ_SS_"(ptr readnone captures(none) %0, ptr noundef readonly captures(none) %1, ptr noundef readonly captures(none) %2, i32 %3, ptr noundef %4) #15 align 2 personality ptr @__gxx_personality_v0 {
  %6 = alloca %"struct.nanobind::detail::tuple.406", align 8
  %7 = alloca %"class.nanobind::bytes", align 8
  %8 = alloca %"class.nanobind::bytes", align 8
  call void @llvm.lifetime.start.p0(i64 8, ptr nonnull %8)
  call void @llvm.lifetime.start.p0(i64 8, ptr nonnull %6) #27
  store ptr null, ptr %6, align 8
  %9 = load ptr, ptr %1, align 8, !tbaa !158
  %10 = load i8, ptr %2, align 1, !tbaa !41
  %11 = call noundef zeroext i1 @_ZN8nanobind6detail11type_casterINS_5bytesEiE11from_pythonENS_6handleEhPNS0_12cleanup_listE(ptr noundef nonnull align 8 dereferenceable(8) %6, ptr %9, i8 noundef zeroext %10, ptr noundef %4) #31
  br i1 %11, label %12, label %"_ZZN8nanobind6detail11func_createILb0ELb1EZL32nanobind_init_test_functions_extRNS_7module_EE4$_43NS_5bytesEJS5_EJLm0EEJNS_5scopeENS_4nameEEEEP7_objectOT1_PFT2_DpT3_ESt16integer_sequenceImJXspT4_EEEDpRKT5_ENKUlPvPS9_PhNS_9rv_policyEPNS0_12cleanup_listEE_clESN_SO_SP_SQ_SS_.exit"

12:                                               ; preds = %5
  call void @llvm.lifetime.start.p0(i64 8, ptr nonnull %7) #27
  %13 = load i64, ptr %6, align 8
  store i64 %13, ptr %8, align 8
  store ptr null, ptr %6, align 8, !tbaa !44
  %.cast = inttoptr i64 %13 to ptr
  %14 = invoke noundef ptr @PyBytes_AsString(ptr noundef %.cast) #28
          to label %.noexc unwind label %20

.noexc:                                           ; preds = %12
  %15 = invoke noundef i64 @PyBytes_Size(ptr noundef %.cast) #28
          to label %.noexc4 unwind label %20

.noexc4:                                          ; preds = %.noexc
  %16 = invoke noundef ptr @_ZN8nanobind6detail24bytes_from_cstr_and_sizeEPKvm(ptr noundef %14, i64 noundef %15) #28
          to label %17 unwind label %20

17:                                               ; preds = %.noexc4
  store ptr null, ptr %7, align 8, !tbaa !44
  %18 = call noundef nonnull align 8 dereferenceable(8) ptr @_ZNKR8nanobind6handle7dec_refEv(ptr noundef nonnull align 8 dereferenceable(8) %7) #31
  %19 = call noundef nonnull align 8 dereferenceable(8) ptr @_ZNKR8nanobind6handle7dec_refEv(ptr noundef nonnull align 8 dereferenceable(8) %8) #31
  call void @llvm.lifetime.end.p0(i64 8, ptr nonnull %7) #27
  br label %"_ZZN8nanobind6detail11func_createILb0ELb1EZL32nanobind_init_test_functions_extRNS_7module_EE4$_43NS_5bytesEJS5_EJLm0EEJNS_5scopeENS_4nameEEEEP7_objectOT1_PFT2_DpT3_ESt16integer_sequenceImJXspT4_EEEDpRKT5_ENKUlPvPS9_PhNS_9rv_policyEPNS0_12cleanup_listEE_clESN_SO_SP_SQ_SS_.exit"

20:                                               ; preds = %.noexc4, %.noexc, %12
  %21 = landingpad { ptr, i32 }
          cleanup
  %22 = call noundef nonnull align 8 dereferenceable(8) ptr @_ZNKR8nanobind6handle7dec_refEv(ptr noundef nonnull align 8 dereferenceable(8) %8) #31
  call void @llvm.lifetime.end.p0(i64 8, ptr nonnull %7) #27
  %23 = call noundef nonnull align 8 dereferenceable(8) ptr @_ZNKR8nanobind6handle7dec_refEv(ptr noundef nonnull align 8 dereferenceable(8) %6) #31
  call void @llvm.lifetime.end.p0(i64 8, ptr nonnull %6) #27
  resume { ptr, i32 } %21

"_ZZN8nanobind6detail11func_createILb0ELb1EZL32nanobind_init_test_functions_extRNS_7module_EE4$_43NS_5bytesEJS5_EJLm0EEJNS_5scopeENS_4nameEEEEP7_objectOT1_PFT2_DpT3_ESt16integer_sequenceImJXspT4_EEEDpRKT5_ENKUlPvPS9_PhNS_9rv_policyEPNS0_12cleanup_listEE_clESN_SO_SP_SQ_SS_.exit": ; preds = %5, %17
  %.0.i = phi ptr [ %16, %17 ], [ inttoptr (i64 1 to ptr), %5 ]
  %24 = call noundef nonnull align 8 dereferenceable(8) ptr @_ZNKR8nanobind6handle7dec_refEv(ptr noundef nonnull align 8 dereferenceable(8) %6) #31
  call void @llvm.lifetime.end.p0(i64 8, ptr nonnull %6) #27
  call void @llvm.lifetime.end.p0(i64 8, ptr nonnull %8)
  ret ptr %.0.i
}